target datalayout = "e-m:e-p270:32:32-p271:32:32-p272:64:64-i64:64-i128:128-f80:128-n8:16:32:64-S128"
target triple = "x86_64-pc-linux-gnu"

%struct.SwsInternal = type { %struct.SwsContext, ptr, ptr, ptr, ptr, i32, [2 x ptr], i32, i32, ptr, i32, i32, i32, i32, i32, i32, i32, i32, i32, i32, i32, i32, i32, i32, i32, i32, i32, i32, ptr, ptr, %struct.RangeList, [3 x ptr], [2 x [4 x i32]], [2 x [4 x ptr]], i32, double, i32, ptr, ptr, i32, [2 x i32], i32, ptr, ptr, [256 x i32], [256 x i32], [256 x float], i32, i32, ptr, i32, ptr, ptr, ptr, ptr, ptr, ptr, ptr, ptr, i32, i32, i32, i32, i32, i32, ptr, ptr, i32, i32, i32, ptr, [8 x i8], [1280 x i32], [1280 x ptr], [1280 x ptr], [1280 x ptr], [176 x i32], [4 x ptr], i32, i32, i32, [4 x i32], [4 x i32], i32, i32, i32, i32, i32, i32, i32, i32, i32, i32, i64, i64, i64, i64, i64, i64, i64, i64, i64, i64, i64, [1024 x i32], [1024 x i32], i32, i64, i64, i64, i64, i64, [1024 x i32], i64, i64, [8 x i16], [8 x i32], ptr, ptr, i32, ptr, ptr, ptr, ptr, [3 x [4 x i16]], [3 x [4 x i16]], ptr, ptr, ptr, ptr, ptr, ptr, ptr, ptr, ptr, ptr, ptr, ptr, ptr, ptr, ptr, ptr, ptr, ptr, ptr, ptr, i32, i32, i64, i64, i32, ptr, i32, ptr, i32, i32, i32, i32, i32, ptr }
%struct.SwsContext = type { ptr, ptr, i32, [2 x double], i32, i32, i32, i32, i32, i32, i32, i32, i32, i32, i32, i32, i32, i32, i32, i32, i32 }
%struct.RangeList = type { ptr, i32, i32 }

@.str.1 = private unnamed_addr constant [30 x i8] c"Assertion %s failed at %s:%d\0A\00", align 1
@.str.3 = private unnamed_addr constant [30 x i8] c"libswscale/swscale_unscaled.c\00", align 1
@.str.7 = private unnamed_addr constant [40 x i8] c"!(dstStride[0] % 2 || dstStride[1] % 2)\00", align 1

; Function Attrs: nounwind uwtable
define internal i32 @planar8ToP01xleWrapper(ptr noundef %0, ptr noundef %1, ptr noundef %2, i32 noundef %3, i32 noundef %4, ptr noundef %5, ptr noundef %6) #0 {
  %8 = alloca ptr, align 8
  %9 = alloca ptr, align 8
  %10 = alloca ptr, align 8
  %11 = alloca i32, align 4
  %12 = alloca i32, align 4
  %13 = alloca ptr, align 8
  %14 = alloca ptr, align 8
  %15 = alloca ptr, align 8
  %16 = alloca ptr, align 8
  %17 = alloca ptr, align 8
  %18 = alloca ptr, align 8
  %19 = alloca ptr, align 8
  %20 = alloca i32, align 4
  %21 = alloca i32, align 4
  %22 = alloca i32, align 4
  %23 = alloca ptr, align 8
  %24 = alloca ptr, align 8
  %25 = alloca ptr, align 8
  %26 = alloca ptr, align 8
  %27 = alloca ptr, align 8
  store ptr %0, ptr %8, align 8, !tbaa !13
  store ptr %1, ptr %9, align 8, !tbaa !52
  store ptr %2, ptr %10, align 8, !tbaa !54
  store i32 %3, ptr %11, align 4, !tbaa !9
  store i32 %4, ptr %12, align 4, !tbaa !9
  store ptr %5, ptr %13, align 8, !tbaa !52
  store ptr %6, ptr %14, align 8, !tbaa !54
  call void @llvm.lifetime.start.p0(i64 8, ptr %15) #11
  %28 = load ptr, ptr %9, align 8, !tbaa !52
  %29 = getelementptr inbounds ptr, ptr %28, i64 0
  %30 = load ptr, ptr %29, align 8, !tbaa !4
  store ptr %30, ptr %15, align 8, !tbaa !4
  call void @llvm.lifetime.start.p0(i64 8, ptr %16) #11
  %31 = load ptr, ptr %9, align 8, !tbaa !52
  %32 = getelementptr inbounds ptr, ptr %31, i64 1
  %33 = load ptr, ptr %32, align 8, !tbaa !4
  store ptr %33, ptr %16, align 8, !tbaa !4
  call void @llvm.lifetime.start.p0(i64 8, ptr %17) #11
  %34 = load ptr, ptr %9, align 8, !tbaa !52
  %35 = getelementptr inbounds ptr, ptr %34, i64 2
  %36 = load ptr, ptr %35, align 8, !tbaa !4
  store ptr %36, ptr %17, align 8, !tbaa !4
  call void @llvm.lifetime.start.p0(i64 8, ptr %18) #11
  %37 = load ptr, ptr %13, align 8, !tbaa !52
  %38 = getelementptr inbounds ptr, ptr %37, i64 0
  %39 = load ptr, ptr %38, align 8, !tbaa !4
  %40 = load ptr, ptr %14, align 8, !tbaa !54
  %41 = getelementptr inbounds i32, ptr %40, i64 0
  %42 = load i32, ptr %41, align 4, !tbaa !9
  %43 = load i32, ptr %11, align 4, !tbaa !9
  %44 = mul nsw i32 %42, %43
  %45 = sext i32 %44 to i64
  %46 = getelementptr inbounds i8, ptr %39, i64 %45
  store ptr %46, ptr %18, align 8, !tbaa !60
  call void @llvm.lifetime.start.p0(i64 8, ptr %19) #11
  %47 = load ptr, ptr %13, align 8, !tbaa !52
  %48 = getelementptr inbounds ptr, ptr %47, i64 1
  %49 = load ptr, ptr %48, align 8, !tbaa !4
  %50 = load ptr, ptr %14, align 8, !tbaa !54
  %51 = getelementptr inbounds i32, ptr %50, i64 1
  %52 = load i32, ptr %51, align 4, !tbaa !9
  %53 = load i32, ptr %11, align 4, !tbaa !9
  %54 = mul nsw i32 %52, %53
  %55 = sdiv i32 %54, 2
  %56 = sext i32 %55 to i64
  %57 = getelementptr inbounds i8, ptr %49, i64 %56
  store ptr %57, ptr %19, align 8, !tbaa !60
  call void @llvm.lifetime.start.p0(i64 4, ptr %20) #11
  call void @llvm.lifetime.start.p0(i64 4, ptr %21) #11
  call void @llvm.lifetime.start.p0(i64 4, ptr %22) #11
  br label %58

58:                                               ; preds = %7
  %59 = load ptr, ptr %14, align 8, !tbaa !54
  %60 = getelementptr inbounds i32, ptr %59, i64 0
  %61 = load i32, ptr %60, align 4, !tbaa !9
  %62 = srem i32 %61, 2
  %63 = icmp ne i32 %62, 0
  br i1 %63, label %70, label %64

64:                                               ; preds = %58
  %65 = load ptr, ptr %14, align 8, !tbaa !54
  %66 = getelementptr inbounds i32, ptr %65, i64 1
  %67 = load i32, ptr %66, align 4, !tbaa !9
  %68 = srem i32 %67, 2
  %69 = icmp ne i32 %68, 0
  br i1 %69, label %70, label %71

70:                                               ; preds = %64, %58
  call void (ptr, i32, ptr, ...) @av_log(ptr noundef null, i32 noundef 0, ptr noundef @.str.1, ptr noundef @.str.7, ptr noundef @.str.3, i32 noundef 338)
  call void @abort() #12
  unreachable

71:                                               ; preds = %64
  br label %72

72:                                               ; preds = %71
  br label %73

73:                                               ; preds = %72
  store i32 0, ptr %21, align 4, !tbaa !9
  br label %74

74:                                               ; preds = %173, %73
  %75 = load i32, ptr %21, align 4, !tbaa !9
  %76 = load i32, ptr %12, align 4, !tbaa !9
  %77 = icmp slt i32 %75, %76
  br i1 %77, label %78, label %176

78:                                               ; preds = %74
  call void @llvm.lifetime.start.p0(i64 8, ptr %23) #11
  %79 = load ptr, ptr %18, align 8, !tbaa !60
  store ptr %79, ptr %23, align 8, !tbaa !60
  call void @llvm.lifetime.start.p0(i64 8, ptr %24) #11
  %80 = load ptr, ptr %15, align 8, !tbaa !4
  store ptr %80, ptr %24, align 8, !tbaa !4
  %81 = load ptr, ptr %8, align 8, !tbaa !13
  %82 = getelementptr inbounds nuw %struct.SwsInternal, ptr %81, i32 0, i32 0
  %83 = getelementptr inbounds nuw %struct.SwsContext, ptr %82, i32 0, i32 8
  %84 = load i32, ptr %83, align 8, !tbaa !55
  store i32 %84, ptr %20, align 4, !tbaa !9
  br label %85

85:                                               ; preds = %98, %78
  %86 = load i32, ptr %20, align 4, !tbaa !9
  %87 = icmp sgt i32 %86, 0
  br i1 %87, label %88, label %101

88:                                               ; preds = %85
  %89 = load ptr, ptr %24, align 8, !tbaa !4
  %90 = getelementptr inbounds nuw i8, ptr %89, i32 1
  store ptr %90, ptr %24, align 8, !tbaa !4
  %91 = load i8, ptr %89, align 1, !tbaa !67
  %92 = zext i8 %91 to i32
  store i32 %92, ptr %22, align 4, !tbaa !9
  %93 = load i32, ptr %22, align 4, !tbaa !9
  %94 = shl i32 %93, 8
  %95 = trunc i32 %94 to i16
  %96 = load ptr, ptr %23, align 8, !tbaa !60
  %97 = getelementptr inbounds nuw i16, ptr %96, i32 1
  store ptr %97, ptr %23, align 8, !tbaa !60
  store i16 %95, ptr %96, align 2, !tbaa !62
  br label %98

98:                                               ; preds = %88
  %99 = load i32, ptr %20, align 4, !tbaa !9
  %100 = add nsw i32 %99, -1
  store i32 %100, ptr %20, align 4, !tbaa !9
  br label %85, !llvm.loop !68

101:                                              ; preds = %85
  %102 = load ptr, ptr %10, align 8, !tbaa !54
  %103 = getelementptr inbounds i32, ptr %102, i64 0
  %104 = load i32, ptr %103, align 4, !tbaa !9
  %105 = load ptr, ptr %15, align 8, !tbaa !4
  %106 = sext i32 %104 to i64
  %107 = getelementptr inbounds i8, ptr %105, i64 %106
  store ptr %107, ptr %15, align 8, !tbaa !4
  %108 = load ptr, ptr %14, align 8, !tbaa !54
  %109 = getelementptr inbounds i32, ptr %108, i64 0
  %110 = load i32, ptr %109, align 4, !tbaa !9
  %111 = sdiv i32 %110, 2
  %112 = load ptr, ptr %18, align 8, !tbaa !60
  %113 = sext i32 %111 to i64
  %114 = getelementptr inbounds i16, ptr %112, i64 %113
  store ptr %114, ptr %18, align 8, !tbaa !60
  %115 = load i32, ptr %21, align 4, !tbaa !9
  %116 = and i32 %115, 1
  %117 = icmp ne i32 %116, 0
  br i1 %117, label %172, label %118

118:                                              ; preds = %101
  call void @llvm.lifetime.start.p0(i64 8, ptr %25) #11
  %119 = load ptr, ptr %19, align 8, !tbaa !60
  store ptr %119, ptr %25, align 8, !tbaa !60
  call void @llvm.lifetime.start.p0(i64 8, ptr %26) #11
  %120 = load ptr, ptr %16, align 8, !tbaa !4
  store ptr %120, ptr %26, align 8, !tbaa !4
  call void @llvm.lifetime.start.p0(i64 8, ptr %27) #11
  %121 = load ptr, ptr %17, align 8, !tbaa !4
  store ptr %121, ptr %27, align 8, !tbaa !4
  %122 = load ptr, ptr %8, align 8, !tbaa !13
  %123 = getelementptr inbounds nuw %struct.SwsInternal, ptr %122, i32 0, i32 0
  %124 = getelementptr inbounds nuw %struct.SwsContext, ptr %123, i32 0, i32 8
  %125 = load i32, ptr %124, align 8, !tbaa !55
  %126 = sdiv i32 %125, 2
  store i32 %126, ptr %20, align 4, !tbaa !9
  br label %127

127:                                              ; preds = %149, %118
  %128 = load i32, ptr %20, align 4, !tbaa !9
  %129 = icmp sgt i32 %128, 0
  br i1 %129, label %130, label %152

130:                                              ; preds = %127
  %131 = load ptr, ptr %26, align 8, !tbaa !4
  %132 = getelementptr inbounds nuw i8, ptr %131, i32 1
  store ptr %132, ptr %26, align 8, !tbaa !4
  %133 = load i8, ptr %131, align 1, !tbaa !67
  %134 = zext i8 %133 to i32
  store i32 %134, ptr %22, align 4, !tbaa !9
  %135 = load i32, ptr %22, align 4, !tbaa !9
  %136 = shl i32 %135, 8
  %137 = trunc i32 %136 to i16
  %138 = load ptr, ptr %25, align 8, !tbaa !60
  %139 = getelementptr inbounds nuw i16, ptr %138, i32 1
  store ptr %139, ptr %25, align 8, !tbaa !60
  store i16 %137, ptr %138, align 2, !tbaa !62
  %140 = load ptr, ptr %27, align 8, !tbaa !4
  %141 = getelementptr inbounds nuw i8, ptr %140, i32 1
  store ptr %141, ptr %27, align 8, !tbaa !4
  %142 = load i8, ptr %140, align 1, !tbaa !67
  %143 = zext i8 %142 to i32
  store i32 %143, ptr %22, align 4, !tbaa !9
  %144 = load i32, ptr %22, align 4, !tbaa !9
  %145 = shl i32 %144, 8
  %146 = trunc i32 %145 to i16
  %147 = load ptr, ptr %25, align 8, !tbaa !60
  %148 = getelementptr inbounds nuw i16, ptr %147, i32 1
  store ptr %148, ptr %25, align 8, !tbaa !60
  store i16 %146, ptr %147, align 2, !tbaa !62
  br label %149

149:                                              ; preds = %130
  %150 = load i32, ptr %20, align 4, !tbaa !9
  %151 = add nsw i32 %150, -1
  store i32 %151, ptr %20, align 4, !tbaa !9
  br label %127, !llvm.loop !69

152:                                              ; preds = %127
  %153 = load ptr, ptr %10, align 8, !tbaa !54
  %154 = getelementptr inbounds i32, ptr %153, i64 1
  %155 = load i32, ptr %154, align 4, !tbaa !9
  %156 = load ptr, ptr %16, align 8, !tbaa !4
  %157 = sext i32 %155 to i64
  %158 = getelementptr inbounds i8, ptr %156, i64 %157
  store ptr %158, ptr %16, align 8, !tbaa !4
  %159 = load ptr, ptr %10, align 8, !tbaa !54
  %160 = getelementptr inbounds i32, ptr %159, i64 2
  %161 = load i32, ptr %160, align 4, !tbaa !9
  %162 = load ptr, ptr %17, align 8, !tbaa !4
  %163 = sext i32 %161 to i64
  %164 = getelementptr inbounds i8, ptr %162, i64 %163
  store ptr %164, ptr %17, align 8, !tbaa !4
  %165 = load ptr, ptr %14, align 8, !tbaa !54
  %166 = getelementptr inbounds i32, ptr %165, i64 1
  %167 = load i32, ptr %166, align 4, !tbaa !9
  %168 = sdiv i32 %167, 2
  %169 = load ptr, ptr %19, align 8, !tbaa !60
  %170 = sext i32 %168 to i64
  %171 = getelementptr inbounds i16, ptr %169, i64 %170
  store ptr %171, ptr %19, align 8, !tbaa !60
  call void @llvm.lifetime.end.p0(i64 8, ptr %27) #11
  call void @llvm.lifetime.end.p0(i64 8, ptr %26) #11
  call void @llvm.lifetime.end.p0(i64 8, ptr %25) #11
  br label %172

172:                                              ; preds = %152, %101
  call void @llvm.lifetime.end.p0(i64 8, ptr %24) #11
  call void @llvm.lifetime.end.p0(i64 8, ptr %23) #11
  br label %173

173:                                              ; preds = %172
  %174 = load i32, ptr %21, align 4, !tbaa !9
  %175 = add nsw i32 %174, 1
  store i32 %175, ptr %21, align 4, !tbaa !9
  br label %74, !llvm.loop !70

176:                                              ; preds = %74
  %177 = load i32, ptr %12, align 4, !tbaa !9
  call void @llvm.lifetime.end.p0(i64 4, ptr %22) #11
  call void @llvm.lifetime.end.p0(i64 4, ptr %21) #11
  call void @llvm.lifetime.end.p0(i64 4, ptr %20) #11
  call void @llvm.lifetime.end.p0(i64 8, ptr %19) #11
  call void @llvm.lifetime.end.p0(i64 8, ptr %18) #11
  call void @llvm.lifetime.end.p0(i64 8, ptr %17) #11
  call void @llvm.lifetime.end.p0(i64 8, ptr %16) #11
  call void @llvm.lifetime.end.p0(i64 8, ptr %15) #11
  ret i32 %177
}