; Function Attrs: nounwind uwtable
define internal noundef i32 @planar8ToP01xleWrapper(ptr noundef readonly captures(none) %0, ptr noundef readonly captures(none) %1, ptr noundef readonly captures(none) %2, i32 noundef %3, i32 noundef returned %4, ptr noundef readonly captures(none) %5, ptr noundef readonly captures(none) %6) #3 {
  %8 = load ptr, ptr %1, align 8, !tbaa !49
  %9 = getelementptr inbounds nuw i8, ptr %1, i64 8
  %10 = load ptr, ptr %9, align 8, !tbaa !49
  %11 = getelementptr inbounds nuw i8, ptr %1, i64 16
  %12 = load ptr, ptr %11, align 8, !tbaa !49
  %13 = load ptr, ptr %5, align 8, !tbaa !49
  %14 = load i32, ptr %6, align 4, !tbaa !48
  %15 = mul nsw i32 %14, %3
  %16 = sext i32 %15 to i64
  %17 = getelementptr inbounds i8, ptr %13, i64 %16
  %18 = getelementptr inbounds nuw i8, ptr %5, i64 8
  %19 = load ptr, ptr %18, align 8, !tbaa !49
  %20 = getelementptr inbounds nuw i8, ptr %6, i64 4
  %21 = load i32, ptr %20, align 4, !tbaa !48
  %22 = mul nsw i32 %21, %3
  %23 = sdiv i32 %22, 2
  %24 = sext i32 %23 to i64
  %25 = getelementptr inbounds i8, ptr %19, i64 %24
  %26 = and i32 %14, 1
  %.not = icmp eq i32 %26, 0
  %27 = and i32 %21, 1
  %.not60 = icmp eq i32 %27, 0
  %or.cond = select i1 %.not, i1 %.not60, i1 false
  br i1 %or.cond, label %.preheader, label %85

.preheader:                                       ; preds = %7
  %28 = icmp sgt i32 %4, 0
  br i1 %28, label %.lr.ph78, label %._crit_edge79

.lr.ph78:                                         ; preds = %.preheader
  %29 = getelementptr inbounds nuw i8, ptr %0, i64 56
  %30 = load i32, ptr %29, align 8, !tbaa !50
  %.fr95 = freeze i32 %30
  %31 = load i32, ptr %2, align 4, !tbaa !48
  %32 = sext i32 %31 to i64
  %33 = ashr exact i32 %14, 1
  %34 = sext i32 %33 to i64
  %35 = sdiv i32 %.fr95, 2
  %36 = icmp sgt i32 %.fr95, 1
  %37 = getelementptr inbounds nuw i8, ptr %2, i64 4
  %38 = getelementptr inbounds nuw i8, ptr %2, i64 8
  %39 = ashr exact i32 %21, 1
  %40 = sext i32 %39 to i64
  br i1 %36, label %.lr.ph.us.us, label %.lr.ph78.split

.lr.ph.us.us:                                     ; preds = %.lr.ph78, %41
  %.04977.us.us = phi i32 [ %42, %41 ], [ 0, %.lr.ph78 ]
  %.05176.us.us = phi ptr [ %.152.us.us, %41 ], [ %25, %.lr.ph78 ]
  %.05375.us.us = phi ptr [ %64, %41 ], [ %17, %.lr.ph78 ]
  %.05474.us.us = phi ptr [ %.155.us.us, %41 ], [ %12, %.lr.ph78 ]
  %.05673.us.us = phi ptr [ %.157.us.us, %41 ], [ %10, %.lr.ph78 ]
  %.05872.us.us = phi ptr [ %63, %41 ], [ %8, %.lr.ph78 ]
  br label %55

41:                                               ; preds = %._crit_edge71.us.us, %._crit_edge.us.us
  %.157.us.us = phi ptr [ %.05673.us.us, %._crit_edge.us.us ], [ %68, %._crit_edge71.us.us ]
  %.155.us.us = phi ptr [ %.05474.us.us, %._crit_edge.us.us ], [ %71, %._crit_edge71.us.us ]
  %.152.us.us = phi ptr [ %.05176.us.us, %._crit_edge.us.us ], [ %72, %._crit_edge71.us.us ]
  %42 = add nuw nsw i32 %.04977.us.us, 1
  %exitcond100.not = icmp eq i32 %42, %4
  br i1 %exitcond100.not, label %._crit_edge79, label %.lr.ph.us.us, !llvm.loop !60

.lr.ph70.us.us:                                   ; preds = %._crit_edge.us.us, %.lr.ph70.us.us
  %.068.us.us = phi ptr [ %48, %.lr.ph70.us.us ], [ %.05474.us.us, %._crit_edge.us.us ]
  %.04567.us.us = phi ptr [ %43, %.lr.ph70.us.us ], [ %.05673.us.us, %._crit_edge.us.us ]
  %.04666.us.us = phi ptr [ %52, %.lr.ph70.us.us ], [ %.05176.us.us, %._crit_edge.us.us ]
  %.165.us.us = phi i32 [ %53, %.lr.ph70.us.us ], [ %35, %._crit_edge.us.us ]
  %43 = getelementptr inbounds nuw i8, ptr %.04567.us.us, i64 1
  %44 = load i8, ptr %.04567.us.us, align 1, !tbaa !61
  %45 = zext i8 %44 to i16
  %46 = shl nuw i16 %45, 8
  %47 = getelementptr inbounds nuw i8, ptr %.04666.us.us, i64 2
  store i16 %46, ptr %.04666.us.us, align 2, !tbaa !56
  %48 = getelementptr inbounds nuw i8, ptr %.068.us.us, i64 1
  %49 = load i8, ptr %.068.us.us, align 1, !tbaa !61
  %50 = zext i8 %49 to i16
  %51 = shl nuw i16 %50, 8
  %52 = getelementptr inbounds nuw i8, ptr %.04666.us.us, i64 4
  store i16 %51, ptr %47, align 2, !tbaa !56
  %53 = add nsw i32 %.165.us.us, -1
  %54 = icmp sgt i32 %.165.us.us, 1
  br i1 %54, label %.lr.ph70.us.us, label %._crit_edge71.us.us, !llvm.loop !62

55:                                               ; preds = %.lr.ph.us.us, %55
  %.04764.us.us = phi ptr [ %.05872.us.us, %.lr.ph.us.us ], [ %56, %55 ]
  %.04863.us.us = phi ptr [ %.05375.us.us, %.lr.ph.us.us ], [ %60, %55 ]
  %.05062.us.us = phi i32 [ %.fr95, %.lr.ph.us.us ], [ %61, %55 ]
  %56 = getelementptr inbounds nuw i8, ptr %.04764.us.us, i64 1
  %57 = load i8, ptr %.04764.us.us, align 1, !tbaa !61
  %58 = zext i8 %57 to i16
  %59 = shl nuw i16 %58, 8
  %60 = getelementptr inbounds nuw i8, ptr %.04863.us.us, i64 2
  store i16 %59, ptr %.04863.us.us, align 2, !tbaa !56
  %61 = add nsw i32 %.05062.us.us, -1
  %62 = icmp sgt i32 %.05062.us.us, 1
  br i1 %62, label %55, label %._crit_edge.us.us, !llvm.loop !63

._crit_edge.us.us:                                ; preds = %55
  %63 = getelementptr inbounds i8, ptr %.05872.us.us, i64 %32
  %64 = getelementptr inbounds i16, ptr %.05375.us.us, i64 %34
  %65 = and i32 %.04977.us.us, 1
  %.not61.us.us = icmp eq i32 %65, 0
  br i1 %.not61.us.us, label %.lr.ph70.us.us, label %41

._crit_edge71.us.us:                              ; preds = %.lr.ph70.us.us
  %66 = load i32, ptr %37, align 4, !tbaa !48
  %67 = sext i32 %66 to i64
  %68 = getelementptr inbounds i8, ptr %.05673.us.us, i64 %67
  %69 = load i32, ptr %38, align 4, !tbaa !48
  %70 = sext i32 %69 to i64
  %71 = getelementptr inbounds i8, ptr %.05474.us.us, i64 %70
  %72 = getelementptr inbounds i16, ptr %.05176.us.us, i64 %40
  br label %41

.lr.ph78.split:                                   ; preds = %.lr.ph78
  %73 = icmp eq i32 %.fr95, 1
  br i1 %73, label %.lr.ph.us93, label %._crit_edge79

.lr.ph.us93:                                      ; preds = %.lr.ph78.split, %._crit_edge.us94
  %.04977.us80 = phi i32 [ %84, %._crit_edge.us94 ], [ 0, %.lr.ph78.split ]
  %.05375.us82 = phi ptr [ %83, %._crit_edge.us94 ], [ %17, %.lr.ph78.split ]
  %.05872.us85 = phi ptr [ %82, %._crit_edge.us94 ], [ %8, %.lr.ph78.split ]
  br label %74

74:                                               ; preds = %.lr.ph.us93, %74
  %.04764.us90 = phi ptr [ %.05872.us85, %.lr.ph.us93 ], [ %75, %74 ]
  %.04863.us91 = phi ptr [ %.05375.us82, %.lr.ph.us93 ], [ %79, %74 ]
  %.05062.us92 = phi i32 [ %.fr95, %.lr.ph.us93 ], [ %80, %74 ]
  %75 = getelementptr inbounds nuw i8, ptr %.04764.us90, i64 1
  %76 = load i8, ptr %.04764.us90, align 1, !tbaa !61
  %77 = zext i8 %76 to i16
  %78 = shl nuw i16 %77, 8
  %79 = getelementptr inbounds nuw i8, ptr %.04863.us91, i64 2
  store i16 %78, ptr %.04863.us91, align 2, !tbaa !56
  %80 = add nsw i32 %.05062.us92, -1
  %81 = icmp sgt i32 %.05062.us92, 1
  br i1 %81, label %74, label %._crit_edge.us94, !llvm.loop !63

._crit_edge.us94:                                 ; preds = %74
  %82 = getelementptr inbounds i8, ptr %.05872.us85, i64 %32
  %83 = getelementptr inbounds i16, ptr %.05375.us82, i64 %34
  %84 = add nuw nsw i32 %.04977.us80, 1
  %exitcond.not = icmp eq i32 %84, %4
  br i1 %exitcond.not, label %._crit_edge79, label %.lr.ph.us93, !llvm.loop !60

85:                                               ; preds = %7
  tail call void (ptr, i32, ptr, ...) @av_log(ptr noundef null, i32 noundef 0, ptr noundef nonnull @.str.1, ptr noundef nonnull @.str.7, ptr noundef nonnull @.str.3, i32 noundef 338) #13
  tail call void @abort() #14
  unreachable

._crit_edge79:                                    ; preds = %._crit_edge.us94, %41, %.lr.ph78.split, %.preheader
  ret i32 %4
}